; Function Attrs: mustprogress uwtable
define noundef i64 @_ZNK6casadi6MatrixINS_6SXElemEE12element_hashEv(ptr noundef nonnull align 8 dereferenceable(40) %0) local_unnamed_addr #3 align 2 personality ptr @__gxx_personality_v0 {
  %2 = alloca %"class.casadi::SXElem", align 8
  call void @_ZNK6casadi6MatrixINS_6SXElemEE6scalarEv(ptr dead_on_unwind nonnull writable sret(%"class.casadi::SXElem") align 8 %2, ptr noundef nonnull align 8 dereferenceable(40) %0)
  %3 = invoke noundef i64 @_ZNK6casadi6SXElem8__hash__Ev(ptr noundef nonnull align 8 dereferenceable(8) %2)
          to label %4 unwind label %5

4:                                                ; preds = %1
  call void @_ZN6casadi6SXElemD1Ev(ptr noundef nonnull align 8 dereferenceable(8) %2) #26
  ret i64 %3

5:                                                ; preds = %1
  %6 = landingpad { ptr, i32 }
          cleanup
  call void @_ZN6casadi6SXElemD1Ev(ptr noundef nonnull align 8 dereferenceable(8) %2) #26
  resume { ptr, i32 } %6
}